target datalayout = "e-m:e-p270:32:32-p271:32:32-p272:64:64-i64:64-i128:128-f80:128-n8:16:32:64-S128"
target triple = "x86_64-pc-linux-gnu"

%struct.sqlite3_vfs = type { i32, i32, i32, ptr, ptr, ptr, ptr, ptr, ptr, ptr, ptr, ptr, ptr, ptr, ptr, ptr, ptr, ptr, ptr, ptr, ptr, ptr }
%struct.vfstrace_info = type { ptr, ptr, i32, i8, ptr, ptr, ptr }

@.str.533 = private unnamed_addr constant [15 x i8] c"%s.xSleep(%d)\0A\00", align 1

; Function Attrs: nounwind uwtable
define internal void @vfstraceOnOff(ptr noundef %0, i32 noundef %1) #0 {
  %3 = alloca ptr, align 8
  %4 = alloca i32, align 4
  store ptr %0, ptr %3, align 8, !tbaa !240
  store i32 %1, ptr %4, align 4, !tbaa !3
  %5 = load ptr, ptr %3, align 8, !tbaa !240
  %6 = getelementptr inbounds nuw %struct.vfstrace_info, ptr %5, i32 0, i32 2
  %7 = load i32, ptr %6, align 8, !tbaa !266
  %8 = load i32, ptr %4, align 4, !tbaa !3
  %9 = and i32 %7, %8
  %10 = icmp ne i32 %9, 0
  %11 = zext i1 %10 to i32
  %12 = trunc i32 %11 to i8
  %13 = load ptr, ptr %3, align 8, !tbaa !240
  %14 = getelementptr inbounds nuw %struct.vfstrace_info, ptr %13, i32 0, i32 3
  store i8 %12, ptr %14, align 4, !tbaa !267
  ret void
}

; Function Attrs: nounwind uwtable
define internal i32 @vfstraceSleep(ptr noundef %0, i32 noundef %1) #0 {
  %3 = alloca ptr, align 8
  %4 = alloca i32, align 4
  %5 = alloca ptr, align 8
  %6 = alloca ptr, align 8
  store ptr %0, ptr %3, align 8, !tbaa !107
  store i32 %1, ptr %4, align 4, !tbaa !3
  call void @llvm.lifetime.start.p0(i64 8, ptr %5) #14
  %7 = load ptr, ptr %3, align 8, !tbaa !107
  %8 = getelementptr inbounds nuw %struct.sqlite3_vfs, ptr %7, i32 0, i32 5
  %9 = load ptr, ptr %8, align 8, !tbaa !111
  store ptr %9, ptr %5, align 8, !tbaa !240
  call void @llvm.lifetime.start.p0(i64 8, ptr %6) #14
  %10 = load ptr, ptr %5, align 8, !tbaa !240
  %11 = getelementptr inbounds nuw %struct.vfstrace_info, ptr %10, i32 0, i32 0
  %12 = load ptr, ptr %11, align 8, !tbaa !260
  store ptr %12, ptr %6, align 8, !tbaa !107
  %13 = load ptr, ptr %5, align 8, !tbaa !240
  call void @vfstraceOnOff(ptr noundef %13, i32 noundef 33554432)
  %14 = load ptr, ptr %5, align 8, !tbaa !240
  %15 = load ptr, ptr %5, align 8, !tbaa !240
  %16 = getelementptr inbounds nuw %struct.vfstrace_info, ptr %15, i32 0, i32 5
  %17 = load ptr, ptr %16, align 8, !tbaa !264
  %18 = load i32, ptr %4, align 4, !tbaa !3
  call void (ptr, ptr, ...) @vfstrace_printf(ptr noundef %14, ptr noundef @.str.533, ptr noundef %17, i32 noundef %18)
  %19 = load ptr, ptr %6, align 8, !tbaa !107
  %20 = getelementptr inbounds nuw %struct.sqlite3_vfs, ptr %19, i32 0, i32 15
  %21 = load ptr, ptr %20, align 8, !tbaa !253
  %22 = load ptr, ptr %6, align 8, !tbaa !107
  %23 = load i32, ptr %4, align 4, !tbaa !3
  %24 = call i32 %21(ptr noundef %22, i32 noundef %23)
  call void @llvm.lifetime.end.p0(i64 8, ptr %6) #14
  call void @llvm.lifetime.end.p0(i64 8, ptr %5) #14
  ret i32 %24
}