; Function Attrs: nounwind uwtable
define internal i32 @vfstraceSleep(ptr noundef readonly captures(none) %0, i32 noundef %1) #2 {
  %3 = getelementptr inbounds nuw i8, ptr %0, i64 32
  %4 = load ptr, ptr %3, align 8, !tbaa !136
  %5 = load ptr, ptr %4, align 8, !tbaa !293
  %6 = getelementptr inbounds nuw i8, ptr %4, i64 16
  %7 = load i32, ptr %6, align 8, !tbaa !299
  %8 = lshr i32 %7, 25
  %9 = trunc nuw nsw i32 %8 to i8
  %10 = and i8 %9, 1
  %11 = getelementptr inbounds nuw i8, ptr %4, i64 20
  store i8 %10, ptr %11, align 4, !tbaa !300
  %12 = getelementptr inbounds nuw i8, ptr %4, i64 32
  %13 = load ptr, ptr %12, align 8, !tbaa !297
  tail call void (ptr, ptr, ...) @vfstrace_printf(ptr noundef nonnull %4, ptr noundef nonnull @.str.533, ptr noundef %13, i32 noundef %1)
  %14 = getelementptr inbounds nuw i8, ptr %5, i64 112
  %15 = load ptr, ptr %14, align 8, !tbaa !286
  %16 = tail call i32 %15(ptr noundef %5, i32 noundef %1) #43
  ret i32 %16
}